target datalayout = "e-m:e-p270:32:32-p271:32:32-p272:64:64-i64:64-i128:128-f80:128-n8:16:32:64-S128"
target triple = "x86_64-pc-linux-gnu"

%struct.ident_t = type { i32, i32, i32, i32, ptr }
%"class.LightGBM::ObjectiveFunction" = type { ptr }
%"class.LightGBM::CrossEntropyLambda" = type <{ %"class.LightGBM::ObjectiveFunction", i32, [4 x i8], ptr, ptr, float, float, i8, [7 x i8] }>

@1 = private unnamed_addr constant %struct.ident_t { i32 0, i32 514, i32 0, i32 22, ptr @0 }, align 8
@.gomp_critical_user_.reduction.var = common global [8 x i32] zeroinitializer, align 8
@3 = private unnamed_addr constant %struct.ident_t { i32 0, i32 18, i32 0, i32 22, ptr @0 }, align 8

; Function Attrs: noinline norecurse nounwind uwtable
define internal void @_ZNK8LightGBM18CrossEntropyLambda14BoostFromScoreEi.omp_outlined.78(ptr noalias noundef %0, ptr noalias noundef %1, ptr noundef %2, ptr noundef nonnull align 8 dereferenceable(8) %3) #19 {
  %5 = alloca ptr, align 8
  %6 = alloca ptr, align 8
  %7 = alloca ptr, align 8
  %8 = alloca ptr, align 8
  %9 = alloca i32, align 4
  %10 = alloca i32, align 4
  %11 = alloca i32, align 4
  %12 = alloca i32, align 4
  %13 = alloca i32, align 4
  %14 = alloca i32, align 4
  %15 = alloca i32, align 4
  %16 = alloca i32, align 4
  %17 = alloca double, align 8
  %18 = alloca i32, align 4
  %19 = alloca [1 x ptr], align 8
  store ptr %0, ptr %5, align 8, !tbaa !193
  store ptr %1, ptr %6, align 8, !tbaa !193
  store ptr %2, ptr %7, align 8, !tbaa !151
  store ptr %3, ptr %8, align 8, !tbaa !191
  %20 = load ptr, ptr %7, align 8, !tbaa !151
  %21 = load ptr, ptr %8, align 8, !tbaa !191
  call void @llvm.lifetime.start.p0(i64 4, ptr %9) #3
  call void @llvm.lifetime.start.p0(i64 4, ptr %10) #3
  %22 = getelementptr inbounds nuw %"class.LightGBM::CrossEntropyLambda", ptr %20, i32 0, i32 1
  %23 = load i32, ptr %22, align 8, !tbaa !818
  store i32 %23, ptr %10, align 4, !tbaa !141
  call void @llvm.lifetime.start.p0(i64 4, ptr %11) #3
  %24 = load i32, ptr %10, align 4, !tbaa !141
  %25 = sub nsw i32 %24, 0
  %26 = sdiv i32 %25, 1
  %27 = sub nsw i32 %26, 1
  store i32 %27, ptr %11, align 4, !tbaa !141
  call void @llvm.lifetime.start.p0(i64 4, ptr %12) #3
  store i32 0, ptr %12, align 4, !tbaa !141
  call void @llvm.lifetime.end.p0(i64 4, ptr %12) #3
  %28 = load i32, ptr %10, align 4, !tbaa !141
  %29 = icmp slt i32 0, %28
  br i1 %29, label %30, label %82

30:                                               ; preds = %4
  call void @llvm.lifetime.start.p0(i64 4, ptr %13) #3
  store i32 0, ptr %13, align 4, !tbaa !141
  call void @llvm.lifetime.start.p0(i64 4, ptr %14) #3
  %31 = load i32, ptr %11, align 4, !tbaa !141
  store i32 %31, ptr %14, align 4, !tbaa !141
  call void @llvm.lifetime.start.p0(i64 4, ptr %15) #3
  store i32 1, ptr %15, align 4, !tbaa !141
  call void @llvm.lifetime.start.p0(i64 4, ptr %16) #3
  store i32 0, ptr %16, align 4, !tbaa !141
  call void @llvm.lifetime.start.p0(i64 8, ptr %17) #3
  store double 0.000000e+00, ptr %17, align 8, !tbaa !194
  call void @llvm.lifetime.start.p0(i64 4, ptr %18) #3
  %32 = load ptr, ptr %5, align 8
  %33 = load i32, ptr %32, align 4, !tbaa !141
  call void @__kmpc_for_static_init_4(ptr @1, i32 %33, i32 34, ptr %16, ptr %13, ptr %14, ptr %15, i32 1, i32 1)
  %34 = load i32, ptr %14, align 4, !tbaa !141
  %35 = load i32, ptr %11, align 4, !tbaa !141
  %36 = icmp sgt i32 %34, %35
  br i1 %36, label %37, label %39

37:                                               ; preds = %30
  %38 = load i32, ptr %11, align 4, !tbaa !141
  br label %41

39:                                               ; preds = %30
  %40 = load i32, ptr %14, align 4, !tbaa !141
  br label %41

41:                                               ; preds = %39, %37
  %42 = phi i32 [ %38, %37 ], [ %40, %39 ]
  store i32 %42, ptr %14, align 4, !tbaa !141
  %43 = load i32, ptr %13, align 4, !tbaa !141
  store i32 %43, ptr %9, align 4, !tbaa !141
  br label %44

44:                                               ; preds = %63, %41
  %45 = load i32, ptr %9, align 4, !tbaa !141
  %46 = load i32, ptr %14, align 4, !tbaa !141
  %47 = icmp sle i32 %45, %46
  br i1 %47, label %49, label %48

48:                                               ; preds = %44
  br label %66

49:                                               ; preds = %44
  %50 = load i32, ptr %9, align 4, !tbaa !141
  %51 = mul nsw i32 %50, 1
  %52 = add nsw i32 0, %51
  store i32 %52, ptr %18, align 4, !tbaa !141
  %53 = getelementptr inbounds nuw %"class.LightGBM::CrossEntropyLambda", ptr %20, i32 0, i32 3
  %54 = load ptr, ptr %53, align 8, !tbaa !819
  %55 = load i32, ptr %18, align 4, !tbaa !141
  %56 = sext i32 %55 to i64
  %57 = getelementptr inbounds float, ptr %54, i64 %56
  %58 = load float, ptr %57, align 4, !tbaa !210
  %59 = fpext float %58 to double
  %60 = load double, ptr %17, align 8, !tbaa !194
  %61 = fadd double %60, %59
  store double %61, ptr %17, align 8, !tbaa !194
  br label %62

62:                                               ; preds = %49
  br label %63

63:                                               ; preds = %62
  %64 = load i32, ptr %9, align 4, !tbaa !141
  %65 = add nsw i32 %64, 1
  store i32 %65, ptr %9, align 4, !tbaa !141
  br label %44

66:                                               ; preds = %48
  br label %67

67:                                               ; preds = %66
  %68 = load ptr, ptr %5, align 8
  %69 = load i32, ptr %68, align 4, !tbaa !141
  call void @__kmpc_for_static_fini(ptr @1, i32 %69)
  %70 = getelementptr inbounds [1 x ptr], ptr %19, i64 0, i64 0
  store ptr %17, ptr %70, align 8
  %71 = load ptr, ptr %5, align 8
  %72 = load i32, ptr %71, align 4, !tbaa !141
  %73 = call i32 @__kmpc_reduce_nowait(ptr @3, i32 %72, i32 1, i64 8, ptr %19, ptr @_ZNK8LightGBM18CrossEntropyLambda14BoostFromScoreEi.omp_outlined.78.omp.reduction.reduction_func, ptr @.gomp_critical_user_.reduction.var)
  switch i32 %73, label %81 [
    i32 1, label %74
    i32 2, label %78
  ]

74:                                               ; preds = %67
  %75 = load double, ptr %21, align 8, !tbaa !194
  %76 = load double, ptr %17, align 8, !tbaa !194
  %77 = fadd double %75, %76
  store double %77, ptr %21, align 8, !tbaa !194
  call void @__kmpc_end_reduce_nowait(ptr @3, i32 %72, ptr @.gomp_critical_user_.reduction.var)
  br label %81

78:                                               ; preds = %67
  %79 = load double, ptr %17, align 8, !tbaa !194
  %80 = atomicrmw fadd ptr %21, double %79 monotonic, align 8
  br label %81

81:                                               ; preds = %78, %74, %67
  call void @llvm.lifetime.end.p0(i64 4, ptr %18) #3
  call void @llvm.lifetime.end.p0(i64 8, ptr %17) #3
  call void @llvm.lifetime.end.p0(i64 4, ptr %16) #3
  call void @llvm.lifetime.end.p0(i64 4, ptr %15) #3
  call void @llvm.lifetime.end.p0(i64 4, ptr %14) #3
  call void @llvm.lifetime.end.p0(i64 4, ptr %13) #3
  br label %82

82:                                               ; preds = %81, %4
  call void @llvm.lifetime.end.p0(i64 4, ptr %11) #3
  call void @llvm.lifetime.end.p0(i64 4, ptr %10) #3
  call void @llvm.lifetime.end.p0(i64 4, ptr %9) #3
  ret void
}