; Function Attrs: noinline norecurse nounwind uwtable
define internal void @_ZNK8LightGBM18CrossEntropyLambda14BoostFromScoreEi.omp_outlined.78(ptr noalias noundef readonly captures(none) %0, ptr noalias readnone captures(none) %1, ptr noundef readonly captures(none) %2, ptr noundef nonnull align 8 captures(none) dereferenceable(8) %3) #17 {
  %5 = alloca i32, align 4
  %6 = alloca i32, align 4
  %7 = alloca i32, align 4
  %8 = alloca i32, align 4
  %9 = alloca double, align 8
  %10 = alloca [1 x ptr], align 8
  %11 = getelementptr inbounds nuw i8, ptr %2, i64 8
  %12 = load i32, ptr %11, align 8, !tbaa !543
  %13 = icmp sgt i32 %12, 0
  br i1 %13, label %14, label %39

14:                                               ; preds = %4
  %15 = add nsw i32 %12, -1
  call void @llvm.lifetime.start.p0(i64 4, ptr nonnull %5) #15
  store i32 0, ptr %5, align 4, !tbaa !127
  call void @llvm.lifetime.start.p0(i64 4, ptr nonnull %6) #15
  store i32 %15, ptr %6, align 4, !tbaa !127
  call void @llvm.lifetime.start.p0(i64 4, ptr nonnull %7) #15
  store i32 1, ptr %7, align 4, !tbaa !127
  call void @llvm.lifetime.start.p0(i64 4, ptr nonnull %8) #15
  store i32 0, ptr %8, align 4, !tbaa !127
  call void @llvm.lifetime.start.p0(i64 8, ptr nonnull %9) #15
  %16 = load i32, ptr %0, align 4, !tbaa !127
  call void @__kmpc_for_static_init_4(ptr nonnull @1, i32 %16, i32 34, ptr nonnull %8, ptr nonnull %5, ptr nonnull %6, ptr nonnull %7, i32 1, i32 1)
  %17 = load i32, ptr %6, align 4, !tbaa !127
  %18 = call i32 @llvm.smin.i32(i32 %17, i32 %15)
  store i32 %18, ptr %6, align 4, !tbaa !127
  %19 = load i32, ptr %5, align 4, !tbaa !127
  %.not13 = icmp sgt i32 %19, %18
  br i1 %.not13, label %._crit_edge, label %.lr.ph

.lr.ph:                                           ; preds = %14
  %20 = getelementptr inbounds nuw i8, ptr %2, i64 16
  %21 = load ptr, ptr %20, align 8, !tbaa !544
  %22 = sext i32 %19 to i64
  %23 = add nsw i32 %18, 1
  br label %24

24:                                               ; preds = %.lr.ph, %24
  %indvars.iv = phi i64 [ %22, %.lr.ph ], [ %indvars.iv.next, %24 ]
  %25 = phi double [ 0.000000e+00, %.lr.ph ], [ %29, %24 ]
  %26 = getelementptr inbounds float, ptr %21, i64 %indvars.iv
  %27 = load float, ptr %26, align 4, !tbaa !175
  %28 = fpext float %27 to double
  %29 = fadd double %25, %28
  %indvars.iv.next = add nsw i64 %indvars.iv, 1
  %lftr.wideiv = trunc i64 %indvars.iv.next to i32
  %exitcond.not = icmp eq i32 %23, %lftr.wideiv
  br i1 %exitcond.not, label %._crit_edge, label %24

._crit_edge:                                      ; preds = %24, %14
  %.lcssa = phi double [ 0.000000e+00, %14 ], [ %29, %24 ]
  store double %.lcssa, ptr %9, align 8
  call void @__kmpc_for_static_fini(ptr nonnull @1, i32 %16)
  store ptr %9, ptr %10, align 8
  %30 = call i32 @__kmpc_reduce_nowait(ptr nonnull @3, i32 %16, i32 1, i64 8, ptr nonnull %10, ptr nonnull @_ZNK8LightGBM18CrossEntropyLambda14BoostFromScoreEi.omp_outlined.78.omp.reduction.reduction_func, ptr nonnull @.gomp_critical_user_.reduction.var)
  switch i32 %30, label %38 [
    i32 1, label %31
    i32 2, label %35
  ]

31:                                               ; preds = %._crit_edge
  %32 = load double, ptr %3, align 8, !tbaa !153
  %33 = load double, ptr %9, align 8, !tbaa !153
  %34 = fadd double %32, %33
  store double %34, ptr %3, align 8, !tbaa !153
  call void @__kmpc_end_reduce_nowait(ptr nonnull @3, i32 %16, ptr nonnull @.gomp_critical_user_.reduction.var)
  br label %38

35:                                               ; preds = %._crit_edge
  %36 = load double, ptr %9, align 8, !tbaa !153
  %37 = atomicrmw fadd ptr %3, double %36 monotonic, align 8
  br label %38

38:                                               ; preds = %35, %31, %._crit_edge
  call void @llvm.lifetime.end.p0(i64 8, ptr nonnull %9) #15
  call void @llvm.lifetime.end.p0(i64 4, ptr nonnull %8) #15
  call void @llvm.lifetime.end.p0(i64 4, ptr nonnull %7) #15
  call void @llvm.lifetime.end.p0(i64 4, ptr nonnull %6) #15
  call void @llvm.lifetime.end.p0(i64 4, ptr nonnull %5) #15
  br label %39

39:                                               ; preds = %38, %4
  ret void
}